Certificate:
    Data:
        Version: 3 (0x2)
        Serial Number:
            86:2e:92:55:87:17:df:79
        Signature Algorithm: sha1WithRSAEncryption
        Issuer: C=US, ST=New York, L=New York, O=PAX Technology Corp, OU=PAXDataCA, CN=PAXDataCA/emailAddress=support@paxdata.com
        Validity
            Not Before: Mar  1 05:18:27 2012 GMT
            Not After : Feb 25 05:18:27 2032 GMT
        Subject: C=US, ST=New York, L=New York, O=PAX Technology Corp, OU=PAXDataCA, CN=PAXDataScript
        Subject Public Key Info:
            Public Key Algorithm: rsaEncryption
            RSA Public Key: (1024 bit)
                Modulus (1024 bit):
                    00:8d:13:e5:f3:9b:b0:e0:11:98:4f:b8:70:03:5a:
                    1b:62:41:d6:ec:b2:0d:86:bd:67:b3:b2:6f:d7:ee:
                    69:4d:42:bc:81:fb:22:cf:12:1c:9e:5a:1b:9b:b0:
                    74:5c:3b:30:c4:2a:8c:61:b4:42:63:42:9d:f2:a0:
                    04:c5:19:12:6b:2c:27:d1:68:ab:8f:c8:0b:29:0d:
                    16:e0:36:90:8c:4c:54:72:17:5b:ad:9c:d0:95:2f:
                    0e:8f:97:7f:5e:5f:e6:22:05:97:d1:3f:3f:a5:d6:
                    03:d3:68:d7:01:03:e1:bf:78:7a:9a:3d:f8:1a:91:
                    87:85:13:a7:59:25:ce:c9:9d
                Exponent: 65537 (0x10001)
        X509v3 extensions:
            X509v3 Subject Key Identifier: 
                E6:04:03:A3:47:B1:82:1D:15:67:54:B1:BD:CF:2F:FD:D9:3B:D7:A0
            X509v3 Authority Key Identifier: 
                keyid:0C:7E:53:5E:44:F7:2E:7E:3C:34:58:23:19:13:02:84:61:C0:7A:83
                DirName:/C=US/ST=New York/L=New York/O=PAX Technology Corp/OU=PAXDataCA/CN=PAXDataCA/emailAddress=support@paxdata.com
                serial:86:2E:92:55:87:17:DF:78

            X509v3 Basic Constraints: 
                CA:TRUE
            X509v3 Key Usage: 
                Certificate Sign, CRL Sign
            Netscape Cert Type: 
                SSL CA, S/MIME CA
    Signature Algorithm: sha1WithRSAEncryption
        ce:d8:99:cd:cf:13:8c:67:9e:27:e0:72:b4:08:bb:d5:7e:71:
        90:49:51:33:04:ae:45:fb:04:ce:2e:45:f0:37:d4:0b:d8:2a:
        1c:05:c5:0b:a0:60:ce:f8:95:19:54:cb:5f:85:3c:4c:76:d6:
        92:56:6a:f7:82:c0:4e:0c:a0:48:49:4c:86:11:68:37:9d:99:
        25:dd:bd:64:08:ec:3f:b6:92:ce:8d:ba:7a:50:c2:2f:76:99:
        de:e6:12:9c:b3:72:09:97:c6:a5:cd:36:6f:db:e5:6e:d1:b4:
        5c:7e:f0:23:70:e5:94:22:d5:81:3e:74:07:b9:ca:10:36:0d:
        ce:42
-----BEGIN CERTIFICATE-----
MIIDwTCCAyqgAwIBAgIJAIYuklWHF995MA0GCSqGSIb3DQEBBQUAMIGdMQswCQYD
VQQGEwJVUzERMA8GA1UECBMITmV3IFlvcmsxETAPBgNVBAcTCE5ldyBZb3JrMRww
GgYDVQQKExNQQVggVGVjaG5vbG9neSBDb3JwMRIwEAYDVQQLEwlQQVhEYXRhQ0Ex
EjAQBgNVBAMTCVBBWERhdGFDQTEiMCAGCSqGSIb3DQEJARYTc3VwcG9ydEBwYXhk
YXRhLmNvbTAeFw0xMjAzMDEwNTE4MjdaFw0zMjAyMjUwNTE4MjdaMH0xCzAJBgNV
BAYTAlVTMREwDwYDVQQIEwhOZXcgWW9yazERMA8GA1UEBxMITmV3IFlvcmsxHDAa
BgNVBAoTE1BBWCBUZWNobm9sb2d5IENvcnAxEjAQBgNVBAsTCVBBWERhdGFDQTEW
MBQGA1UEAxMNUEFYRGF0YVNjcmlwdDCBnzANBgkqhkiG9w0BAQEFAAOBjQAwgYkC
gYEAjRPl85uw4BGYT7hwA1obYkHW7LINhr1ns7Jv1+5pTUK8gfsizxIcnlobm7B0
XDswxCqMYbRCY0Kd8qAExRkSaywn0Wirj8gLKQ0W4DaQjExUchdbrZzQlS8Oj5d/
Xl/mIgWX0T8/pdYD02jXAQPhv3h6mj34GpGHhROnWSXOyZ0CAwEAAaOCASYwggEi
MB0GA1UdDgQWBBTmBAOjR7GCHRVnVLG9zy/92TvXoDCB0gYDVR0jBIHKMIHHgBQM
flNeRPcufjw0WCMZEwKEYcB6g6GBo6SBoDCBnTELMAkGA1UEBhMCVVMxETAPBgNV
BAgTCE5ldyBZb3JrMREwDwYDVQQHEwhOZXcgWW9yazEcMBoGA1UEChMTUEFYIFRl
Y2hub2xvZ3kgQ29ycDESMBAGA1UECxMJUEFYRGF0YUNBMRIwEAYDVQQDEwlQQVhE
YXRhQ0ExIjAgBgkqhkiG9w0BCQEWE3N1cHBvcnRAcGF4ZGF0YS5jb22CCQCGLpJV
hxffeDAMBgNVHRMEBTADAQH/MAsGA1UdDwQEAwIBBjARBglghkgBhvhCAQEEBAMC
AQYwDQYJKoZIhvcNAQEFBQADgYEAztiZzc8TjGeeJ+BytAi71X5xkElRMwSuRfsE
zi5F8DfUC9gqHAXFC6BgzviVGVTLX4U8THbWklZq94LATgygSElMhhFoN52ZJd29
ZAjsP7aSzo26elDCL3aZ3uYSnLNyCZfGpc02b9vlbtG0XH7wI3DllCLVgT50B7nK
EDYNzkI=
-----END CERTIFICATE-----
