Certificate:
    Data:
        Version: 3 (0x2)
        Serial Number:
            86:2e:92:55:87:17:df:78
        Signature Algorithm: sha1WithRSAEncryption
        Issuer: C=US, ST=New York, L=New York, O=PAX Technology Corp, OU=PAXDataCA, CN=PAXDataCA/emailAddress=support@paxdata.com
        Validity
            Not Before: Mar  1 05:06:28 2012 GMT
            Not After : Feb 25 05:06:28 2032 GMT
        Subject: C=US, ST=New York, L=New York, O=PAX Technology Corp, OU=PAXDataCA, CN=PAXDataCA/emailAddress=support@paxdata.com
        Subject Public Key Info:
            Public Key Algorithm: rsaEncryption
            RSA Public Key: (1024 bit)
                Modulus (1024 bit):
                    00:db:08:5d:45:65:7e:67:c9:b5:32:84:9b:9e:45:
                    15:98:d3:aa:f3:fc:62:1d:0a:54:aa:82:9b:49:97:
                    c3:01:21:6e:42:ef:c9:cf:84:5d:4c:c3:26:58:7c:
                    a9:34:8f:95:13:51:a1:2b:06:1c:9f:1f:51:15:c5:
                    e0:1a:95:d1:d1:aa:a0:e7:79:19:a7:a1:97:50:a7:
                    4b:5b:03:54:79:10:90:38:d7:b0:ce:75:98:5c:e4:
                    66:2a:f0:0f:24:84:b1:63:13:05:ca:a4:3c:48:89:
                    d7:9c:f9:e3:5d:6c:ed:d0:9b:58:08:22:a1:ba:11:
                    8d:3a:29:e2:cf:4f:ca:3f:d5
                Exponent: 65537 (0x10001)
        X509v3 extensions:
            X509v3 Subject Key Identifier: 
                0C:7E:53:5E:44:F7:2E:7E:3C:34:58:23:19:13:02:84:61:C0:7A:83
            X509v3 Authority Key Identifier: 
                keyid:0C:7E:53:5E:44:F7:2E:7E:3C:34:58:23:19:13:02:84:61:C0:7A:83
                DirName:/C=US/ST=New York/L=New York/O=PAX Technology Corp/OU=PAXDataCA/CN=PAXDataCA/emailAddress=support@paxdata.com
                serial:86:2E:92:55:87:17:DF:78

            X509v3 Basic Constraints: 
                CA:TRUE
            X509v3 Key Usage: 
                Certificate Sign, CRL Sign
            Netscape Cert Type: 
                SSL CA, S/MIME CA
    Signature Algorithm: sha1WithRSAEncryption
        d1:47:cf:62:bf:9d:b8:b6:ef:94:37:dc:30:6b:0d:ab:66:54:
        a0:31:ec:18:79:fc:19:2b:56:73:73:93:0c:7b:e5:31:00:13:
        a2:43:6c:9e:7e:38:81:b2:9a:c0:c8:2e:9d:56:b5:23:b4:52:
        b0:49:82:66:ce:00:43:28:8b:b2:5e:30:bd:19:b0:16:ff:3d:
        e5:78:47:b6:8f:8b:58:c9:a8:b4:fe:6b:28:39:e9:e7:05:09:
        bb:be:2d:32:5e:b9:f0:c4:ca:b3:cd:ec:cd:73:67:05:35:47:
        0e:14:60:b7:ea:67:2b:f1:3b:e1:82:66:39:f3:1a:ec:bd:a4:
        d7:c8
-----BEGIN CERTIFICATE-----
MIID4jCCA0ugAwIBAgIJAIYuklWHF994MA0GCSqGSIb3DQEBBQUAMIGdMQswCQYD
VQQGEwJVUzERMA8GA1UECBMITmV3IFlvcmsxETAPBgNVBAcTCE5ldyBZb3JrMRww
GgYDVQQKExNQQVggVGVjaG5vbG9neSBDb3JwMRIwEAYDVQQLEwlQQVhEYXRhQ0Ex
EjAQBgNVBAMTCVBBWERhdGFDQTEiMCAGCSqGSIb3DQEJARYTc3VwcG9ydEBwYXhk
YXRhLmNvbTAeFw0xMjAzMDEwNTA2MjhaFw0zMjAyMjUwNTA2MjhaMIGdMQswCQYD
VQQGEwJVUzERMA8GA1UECBMITmV3IFlvcmsxETAPBgNVBAcTCE5ldyBZb3JrMRww
GgYDVQQKExNQQVggVGVjaG5vbG9neSBDb3JwMRIwEAYDVQQLEwlQQVhEYXRhQ0Ex
EjAQBgNVBAMTCVBBWERhdGFDQTEiMCAGCSqGSIb3DQEJARYTc3VwcG9ydEBwYXhk
YXRhLmNvbTCBnzANBgkqhkiG9w0BAQEFAAOBjQAwgYkCgYEA2whdRWV+Z8m1MoSb
nkUVmNOq8/xiHQpUqoKbSZfDASFuQu/Jz4RdTMMmWHypNI+VE1GhKwYcnx9RFcXg
GpXR0aqg53kZp6GXUKdLWwNUeRCQONewznWYXORmKvAPJISxYxMFyqQ8SInXnPnj
XWzt0JtYCCKhuhGNOiniz0/KP9UCAwEAAaOCASYwggEiMB0GA1UdDgQWBBQMflNe
RPcufjw0WCMZEwKEYcB6gzCB0gYDVR0jBIHKMIHHgBQMflNeRPcufjw0WCMZEwKE
YcB6g6GBo6SBoDCBnTELMAkGA1UEBhMCVVMxETAPBgNVBAgTCE5ldyBZb3JrMREw
DwYDVQQHEwhOZXcgWW9yazEcMBoGA1UEChMTUEFYIFRlY2hub2xvZ3kgQ29ycDES
MBAGA1UECxMJUEFYRGF0YUNBMRIwEAYDVQQDEwlQQVhEYXRhQ0ExIjAgBgkqhkiG
9w0BCQEWE3N1cHBvcnRAcGF4ZGF0YS5jb22CCQCGLpJVhxffeDAMBgNVHRMEBTAD
AQH/MAsGA1UdDwQEAwIBBjARBglghkgBhvhCAQEEBAMCAQYwDQYJKoZIhvcNAQEF
BQADgYEA0UfPYr+duLbvlDfcMGsNq2ZUoDHsGHn8GStWc3OTDHvlMQATokNsnn44
gbKawMgunVa1I7RSsEmCZs4AQyiLsl4wvRmwFv895XhHto+LWMmotP5rKDnp5wUJ
u74tMl658MTKs83szXNnBTVHDhRgt+pnK/E74YJmOfMa7L2k18g=
-----END CERTIFICATE-----
